; Function Attrs: mustprogress uwtable
define void @_ZN3nix11RestoreSink17createRegularFileERKNSt7__cxx1112basic_stringIcSt11char_traitsIcESaIcEEESt8functionIFvRNS_21CreateRegularFileSinkEEE(ptr noundef nonnull align 8 dereferenceable(40) %0, ptr noundef nonnull align 8 dereferenceable(32) %1, ptr noundef %2) unnamed_addr #4 align 2 personality ptr @__gxx_personality_v0 {
  %4 = alloca %"class.std::__cxx11::basic_string", align 8
  %5 = alloca %"struct.nix::RestoreRegularFile", align 8
  %6 = alloca %"class.nix::AutoCloseFD", align 4
  %7 = getelementptr inbounds i8, ptr %0, i64 8
  call void @_ZStplIcSt11char_traitsIcESaIcEENSt7__cxx1112basic_stringIT_T0_T1_EERKS8_SA_(ptr dead_on_unwind nonnull writable sret(%"class.std::__cxx11::basic_string") align 8 %4, ptr noundef nonnull align 8 dereferenceable(32) %7, ptr noundef nonnull align 8 dereferenceable(32) %1)
  store ptr getelementptr inbounds ({ [8 x ptr] }, ptr @_ZTVN3nix18RestoreRegularFileE, i64 0, i32 0, i64 2), ptr %5, align 8
  %8 = getelementptr inbounds i8, ptr %5, i64 8
  invoke void @_ZN3nix11AutoCloseFDC1Ev(ptr noundef nonnull align 4 dereferenceable(4) %8)
          to label %_ZN3nix18RestoreRegularFileC2Ev.exit unwind label %21

_ZN3nix18RestoreRegularFileC2Ev.exit:             ; preds = %3
  %9 = load ptr, ptr %4, align 8
  %10 = invoke i32 (ptr, i32, ...) @open(ptr noundef %9, i32 noundef 524481, i32 noundef 438)
          to label %11 unwind label %23

11:                                               ; preds = %_ZN3nix18RestoreRegularFileC2Ev.exit
  invoke void @_ZN3nix11AutoCloseFDC1Ei(ptr noundef nonnull align 4 dereferenceable(4) %6, i32 noundef %10)
          to label %12 unwind label %23

12:                                               ; preds = %11
  %13 = invoke noundef nonnull align 4 dereferenceable(4) ptr @_ZN3nix11AutoCloseFDaSEOS0_(ptr noundef nonnull align 4 dereferenceable(4) %8, ptr noundef nonnull align 4 dereferenceable(4) %6)
          to label %14 unwind label %25

14:                                               ; preds = %12
  call void @_ZN3nix11AutoCloseFDD1Ev(ptr noundef nonnull align 4 dereferenceable(4) %6) #26
  %15 = invoke noundef zeroext i1 @_ZNK3nix11AutoCloseFDcvbEv(ptr noundef nonnull align 4 dereferenceable(4) %8)
          to label %16 unwind label %23

16:                                               ; preds = %14
  br i1 %15, label %29, label %17

17:                                               ; preds = %16
  %18 = call ptr @__cxa_allocate_exception(i64 384) #26
  %19 = tail call ptr @__errno_location() #31
  %20 = load i32, ptr %19, align 4
  invoke void @_ZN3nix8SysErrorC2IJA20_cNSt7__cxx1112basic_stringIcSt11char_traitsIcESaIcEEEEEEiDpRKT_(ptr noundef nonnull align 8 dereferenceable(380) %18, i32 noundef %20, ptr noundef nonnull align 1 dereferenceable(20) @.str.8, ptr noundef nonnull align 8 dereferenceable(32) %4)
          to label %_ZN3nix8SysErrorC2IJA20_cNSt7__cxx1112basic_stringIcSt11char_traitsIcESaIcEEEEEEDpRKT_.exit unwind label %27

_ZN3nix8SysErrorC2IJA20_cNSt7__cxx1112basic_stringIcSt11char_traitsIcESaIcEEEEEEDpRKT_.exit: ; preds = %17
  invoke void @__cxa_throw(ptr nonnull %18, ptr nonnull @_ZTIN3nix8SysErrorE, ptr nonnull @_ZN3nix8SysErrorD2Ev) #30
          to label %44 unwind label %23

21:                                               ; preds = %3
  %22 = landingpad { ptr, i32 }
          cleanup
  br label %43

23:                                               ; preds = %33, %32, %_ZN3nix8SysErrorC2IJA20_cNSt7__cxx1112basic_stringIcSt11char_traitsIcESaIcEEEEEEDpRKT_.exit, %14, %11, %_ZN3nix18RestoreRegularFileC2Ev.exit
  %24 = landingpad { ptr, i32 }
          cleanup
  br label %42

25:                                               ; preds = %12
  %26 = landingpad { ptr, i32 }
          cleanup
  call void @_ZN3nix11AutoCloseFDD1Ev(ptr noundef nonnull align 4 dereferenceable(4) %6) #26
  br label %42

27:                                               ; preds = %17
  %28 = landingpad { ptr, i32 }
          cleanup
  call void @__cxa_free_exception(ptr %18) #26
  br label %42

29:                                               ; preds = %16
  %30 = getelementptr inbounds i8, ptr %2, i64 16
  %31 = load ptr, ptr %30, align 8
  %.not.i.i = icmp eq ptr %31, null
  br i1 %.not.i.i, label %32, label %33

32:                                               ; preds = %29
  invoke void @_ZSt25__throw_bad_function_callv() #30
          to label %.noexc unwind label %23

.noexc:                                           ; preds = %32
  unreachable

33:                                               ; preds = %29
  %34 = getelementptr inbounds i8, ptr %2, i64 24
  %35 = load ptr, ptr %34, align 8
  invoke void %35(ptr noundef nonnull align 8 dereferenceable(16) %2, ptr noundef nonnull align 8 dereferenceable(8) %5)
          to label %_ZNKSt8functionIFvRN3nix21CreateRegularFileSinkEEEclES2_.exit unwind label %23

_ZNKSt8functionIFvRN3nix21CreateRegularFileSinkEEEclES2_.exit: ; preds = %33
  store ptr getelementptr inbounds ({ [8 x ptr] }, ptr @_ZTVN3nix18RestoreRegularFileE, i64 0, i32 0, i64 2), ptr %5, align 8
  call void @_ZN3nix11AutoCloseFDD1Ev(ptr noundef nonnull align 4 dereferenceable(4) %8) #26
  %36 = load ptr, ptr %4, align 8
  %37 = getelementptr inbounds i8, ptr %4, i64 16
  %38 = icmp eq ptr %36, %37
  br i1 %38, label %_ZNKSt7__cxx1112basic_stringIcSt11char_traitsIcESaIcEE11_M_is_localEv.exit.thread.i.i, label %_ZNKSt7__cxx1112basic_stringIcSt11char_traitsIcESaIcEE11_M_is_localEv.exit.i.i

_ZNKSt7__cxx1112basic_stringIcSt11char_traitsIcESaIcEE11_M_is_localEv.exit.thread.i.i: ; preds = %_ZNKSt8functionIFvRN3nix21CreateRegularFileSinkEEEclES2_.exit
  %39 = getelementptr inbounds i8, ptr %4, i64 8
  %40 = load i64, ptr %39, align 8
  %41 = icmp ult i64 %40, 16
  call void @llvm.assume(i1 %41)
  br label %_ZNSt7__cxx1112basic_stringIcSt11char_traitsIcESaIcEED2Ev.exit

_ZNKSt7__cxx1112basic_stringIcSt11char_traitsIcESaIcEE11_M_is_localEv.exit.i.i: ; preds = %_ZNKSt8functionIFvRN3nix21CreateRegularFileSinkEEEclES2_.exit
  call void @_ZdlPv(ptr noundef %36) #27
  br label %_ZNSt7__cxx1112basic_stringIcSt11char_traitsIcESaIcEED2Ev.exit

_ZNSt7__cxx1112basic_stringIcSt11char_traitsIcESaIcEED2Ev.exit: ; preds = %_ZNKSt7__cxx1112basic_stringIcSt11char_traitsIcESaIcEE11_M_is_localEv.exit.thread.i.i, %_ZNKSt7__cxx1112basic_stringIcSt11char_traitsIcESaIcEE11_M_is_localEv.exit.i.i
  call void @_ZNSaIcED2Ev(ptr noundef nonnull align 1 dereferenceable(1) %4) #26
  ret void

42:                                               ; preds = %27, %25, %23
  %.pn = phi { ptr, i32 } [ %24, %23 ], [ %28, %27 ], [ %26, %25 ]
  store ptr getelementptr inbounds ({ [8 x ptr] }, ptr @_ZTVN3nix18RestoreRegularFileE, i64 0, i32 0, i64 2), ptr %5, align 8
  call void @_ZN3nix11AutoCloseFDD1Ev(ptr noundef nonnull align 4 dereferenceable(4) %8) #26
  br label %43

43:                                               ; preds = %42, %21
  %.pn.pn = phi { ptr, i32 } [ %.pn, %42 ], [ %22, %21 ]
  call void @_ZNSt7__cxx1112basic_stringIcSt11char_traitsIcESaIcEED2Ev(ptr noundef nonnull align 8 dereferenceable(32) %4) #26
  resume { ptr, i32 } %.pn.pn

44:                                               ; preds = %_ZN3nix8SysErrorC2IJA20_cNSt7__cxx1112basic_stringIcSt11char_traitsIcESaIcEEEEEEDpRKT_.exit
  unreachable
}